target datalayout = "e-m:e-p270:32:32-p271:32:32-p272:64:64-i64:64-i128:128-f80:128-n8:16:32:64-S128"
target triple = "x86_64-unknown-linux-gnu"

@_ZN5arrow11memory_pool8internal14zero_size_areaE = external global [1 x i64], align 8

; Function Attrs: mustprogress nounwind uwtable
define void @_ZN5arrow11memory_pool8internal17JemallocAllocator17DeallocateAlignedEPhll(ptr noundef %ptr, i64 noundef %size, i64 noundef %alignment) #1 align 2 {
entry:
  %ptr.addr = alloca ptr, align 8
  %size.addr = alloca i64, align 8
  %alignment.addr = alloca i64, align 8
  store ptr %ptr, ptr %ptr.addr, align 8
  store i64 %size, ptr %size.addr, align 8
  store i64 %alignment, ptr %alignment.addr, align 8
  %0 = load ptr, ptr %ptr.addr, align 8
  %cmp = icmp eq ptr %0, @_ZN5arrow11memory_pool8internal14zero_size_areaE
  br i1 %cmp, label %if.then, label %if.else

if.then:                                          ; preds = %entry
  br label %while.cond

while.cond:                                       ; preds = %while.body, %if.then
  br i1 false, label %while.body, label %while.end

while.body:                                       ; preds = %while.cond
  br label %while.cond, !llvm.loop !8

while.end:                                        ; preds = %while.cond
  br label %while.cond1

while.cond1:                                      ; preds = %while.body2, %while.end
  br i1 false, label %while.body2, label %while.end3

while.body2:                                      ; preds = %while.cond1
  br label %while.cond1, !llvm.loop !9

while.end3:                                       ; preds = %while.cond1
  br label %while.cond4

while.cond4:                                      ; preds = %while.body5, %while.end3
  br i1 false, label %while.body5, label %while.end6

while.body5:                                      ; preds = %while.cond4
  br label %while.cond4, !llvm.loop !10

while.end6:                                       ; preds = %while.cond4
  br label %if.end

if.else:                                          ; preds = %entry
  %1 = load ptr, ptr %ptr.addr, align 8
  %2 = load i64, ptr %size.addr, align 8
  %3 = load i64, ptr %alignment.addr, align 8
  %cmp7 = icmp ult i64 %3, 2147483647
  br i1 %cmp7, label %cond.true, label %cond.false

cond.true:                                        ; preds = %if.else
  %4 = load i64, ptr %alignment.addr, align 8
  %conv = trunc i64 %4 to i32
  %call = call i32 @ffs(i32 noundef %conv) #14
  %sub = sub nsw i32 %call, 1
  br label %cond.end

cond.false:                                       ; preds = %if.else
  %5 = load i64, ptr %alignment.addr, align 8
  %shr = lshr i64 %5, 32
  %conv8 = trunc i64 %shr to i32
  %call9 = call i32 @ffs(i32 noundef %conv8) #14
  %add = add nsw i32 %call9, 31
  br label %cond.end

cond.end:                                         ; preds = %cond.false, %cond.true
  %cond = phi i32 [ %sub, %cond.true ], [ %add, %cond.false ]
  call void @je_arrow_sdallocx(ptr noundef %1, i64 noundef %2, i32 noundef %cond) #16
  br label %if.end

if.end:                                           ; preds = %cond.end, %while.end6
  ret void
}