; Function Attrs: mustprogress nounwind uwtable
define void @_ZN5arrow11memory_pool8internal17JemallocAllocator17DeallocateAlignedEPhll(ptr noundef %ptr, i64 noundef %size, i64 noundef %alignment) local_unnamed_addr #2 align 2 {
entry:
  %cmp = icmp eq ptr %ptr, @_ZN5arrow11memory_pool8internal14zero_size_areaE
  br i1 %cmp, label %if.end, label %if.else

if.else:                                          ; preds = %entry
  %cmp7 = icmp ult i64 %alignment, 2147483647
  br i1 %cmp7, label %cond.true, label %cond.false

cond.true:                                        ; preds = %if.else
  %conv = trunc nuw nsw i64 %alignment to i32
  %cttz4 = tail call range(i32 0, 33) i32 @llvm.cttz.i32(i32 %conv, i1 true)
  %.not5 = icmp eq i64 %alignment, 0
  %sub = select i1 %.not5, i32 -1, i32 %cttz4
  br label %cond.end

cond.false:                                       ; preds = %if.else
  %shr = lshr i64 %alignment, 32
  %conv8 = trunc nuw i64 %shr to i32
  %cttz = tail call range(i32 0, 33) i32 @llvm.cttz.i32(i32 %conv8, i1 true)
  %.not = icmp ult i64 %alignment, 4294967296
  %0 = or disjoint i32 %cttz, 32
  %add = select i1 %.not, i32 31, i32 %0
  br label %cond.end

cond.end:                                         ; preds = %cond.false, %cond.true
  %cond = phi i32 [ %sub, %cond.true ], [ %add, %cond.false ]
  tail call void @je_arrow_sdallocx(ptr noundef %ptr, i64 noundef %size, i32 noundef %cond) #17
  br label %if.end

if.end:                                           ; preds = %entry, %cond.end
  ret void
}